target datalayout = "e-m:e-p270:32:32-p271:32:32-p272:64:64-i64:64-i128:128-f80:128-n8:16:32:64-S128"
target triple = "x86_64-unknown-linux-gnu"

%struct.__va_list_tag = type { i32, i32, ptr, ptr }

@flac__utils_verbosity_ = dso_local global i32 2, align 4

; Function Attrs: nounwind sspstrong uwtable
define dso_local void @flac__utils_printf(ptr noundef %stream, i32 noundef %level, ptr noundef %format, ...) #0 {
entry:
  %stream.addr = alloca ptr, align 8
  %level.addr = alloca i32, align 4
  %format.addr = alloca ptr, align 8
  %args = alloca [1 x %struct.__va_list_tag], align 16
  store ptr %stream, ptr %stream.addr, align 8
  store i32 %level, ptr %level.addr, align 4
  store ptr %format, ptr %format.addr, align 8
  %0 = load i32, ptr @flac__utils_verbosity_, align 4
  %1 = load i32, ptr %level.addr, align 4
  %cmp = icmp sge i32 %0, %1
  br i1 %cmp, label %if.then, label %if.end

if.then:                                          ; preds = %entry
  %arraydecay = getelementptr inbounds [1 x %struct.__va_list_tag], ptr %args, i64 0, i64 0
  call void @llvm.va_start(ptr %arraydecay)
  %2 = load ptr, ptr %stream.addr, align 8
  %3 = load ptr, ptr %format.addr, align 8
  %arraydecay1 = getelementptr inbounds [1 x %struct.__va_list_tag], ptr %args, i64 0, i64 0
  %call = call i32 @vfprintf(ptr noundef %2, ptr noundef %3, ptr noundef %arraydecay1)
  %arraydecay2 = getelementptr inbounds [1 x %struct.__va_list_tag], ptr %args, i64 0, i64 0
  call void @llvm.va_end(ptr %arraydecay2)
  br label %if.end

if.end:                                           ; preds = %if.then, %entry
  ret void
}