; Function Attrs: nofree nounwind sspstrong uwtable
define dso_local void @flac__utils_printf(ptr noundef captures(none) %stream, i32 noundef %level, ptr noundef readonly captures(none) %format, ...) local_unnamed_addr #0 {
entry:
  %args = alloca [1 x %struct.__va_list_tag], align 16
  %0 = load i32, ptr @flac__utils_verbosity_, align 4
  %cmp.not = icmp slt i32 %0, %level
  br i1 %cmp.not, label %if.end, label %if.then

if.then:                                          ; preds = %entry
  call void @llvm.va_start.p0(ptr nonnull %args)
  %call = call i32 @vfprintf(ptr noundef %stream, ptr noundef %format, ptr noundef nonnull %args)
  call void @llvm.va_end.p0(ptr nonnull %args)
  br label %if.end

if.end:                                           ; preds = %if.then, %entry
  ret void
}